target datalayout = "e-m:e-p270:32:32-p271:32:32-p272:64:64-i64:64-i128:128-f80:128-n8:16:32:64-S128"
target triple = "x86_64-unknown-linux-gnu"

%struct.redisServer = type { i32, i64, ptr, ptr, ptr, i32, i32, i32, i32, i32, ptr, ptr, ptr, ptr, ptr, ptr, i32, i32, i64, i32, i32, i32, i32, ptr, i32, i32, [41 x i8], i32, i64, i32, i32, i32, ptr, ptr, i32, i32, i64, ptr, ptr, ptr, ptr, [2 x i32], i32, i32, i32, i32, i32, [16 x ptr], i32, ptr, ptr, i32, [8 x %struct.connListener], i32, %struct.connListener, ptr, ptr, ptr, ptr, ptr, ptr, ptr, ptr, ptr, ptr, i32, ptr, i32, ptr, [3 x %struct.pause_event], [256 x i8], ptr, i64, i32, i32, i32, i32, i64, i32, i32, i32, i32, i32, i64, i64, i64, i64, i64, i64, i64, i64, i64, double, i64, i64, i64, i64, i64, i64, i64, i64, i64, i64, i64, i64, i64, i64, i64, i64, i64, i64, i64, i64, double, i64, i64, i64, i64, i64, ptr, i64, i64, i64, %struct.malloc_stats, i64, i64, i64, i64, i64, i64, i64, i64, i64, i64, i64, i64, double, [4 x i64], i64, i64, i64, i64, i64, i64, i64, i64, i64, i64, [7 x %struct.anon], i64, i64, i64, i64, i64, i64, [4 x %struct.durationStats], i32, i32, i32, i32, i32, i32, i32, i32, i32, i32, i64, i32, i32, i32, i32, i64, i64, i32, i32, i32, i32, i32, ptr, [3 x %struct.clientBufferLimitsConfig], i32, i32, ptr, i32, i32, i32, i32, ptr, ptr, i32, i32, i64, i64, i64, i64, i64, i32, i32, ptr, i32, i32, i64, i64, i64, i64, i64, i32, i32, i64, i32, i32, i32, i32, i32, i32, i32, i32, ptr, i32, i64, i64, i64, i64, ptr, i32, ptr, i32, i32, i32, i64, i64, i64, i64, i32, i32, i32, i32, i32, i32, ptr, i32, i32, ptr, i32, i32, i32, [2 x i32], i32, %struct.redisOpArray, i32, ptr, i32, ptr, i32, i32, i32, i32, i32, i32, i32, [41 x i8], [41 x i8], i64, i64, i64, i64, i32, i32, ptr, i64, i64, i64, i32, i32, i32, i32, i32, i32, i32, i64, ptr, ptr, ptr, ptr, i32, i32, ptr, ptr, i32, i32, i64, i64, i64, ptr, i32, ptr, i64, i32, i32, i32, i64, i32, i32, i32, i32, ptr, i32, i32, [41 x i8], i64, i32, ptr, i32, i32, i64, i64, i32, i32, i32, i32, i32, i64, [3 x i32], i32, i32, i32, [9 x i32], ptr, ptr, i32, i64, ptr, ptr, i32, i32, i32, i32, i64, i64, i64, i64, i64, i64, i64, i64, i64, i64, i32, i32, i64, i64, i32, i64, i64, i64, i64, i64, ptr, ptr, i32, ptr, i32, i32, i32, i64, i64, ptr, ptr, i32, i32, i32, i32, i32, ptr, ptr, ptr, i32, i32, i32, i32, i32, i32, i32, i64, i32, i64, i32, i32, i32, i32, i32, i32, i32, i64, ptr, ptr, i64, ptr, i32, %struct.aclInfo, i32, i64, i32, i32, i32, %struct.redisTLSContextConfig, ptr, ptr, ptr, ptr, ptr, i64, i32, ptr, i32, i32, i32, i64, i32, ptr }
%struct.connListener = type { [16 x i32], i32, ptr, i32, i32, ptr, ptr }
%struct.pause_event = type { i32, i64 }
%struct.malloc_stats = type { i64, i64, i64, i64, i64 }
%struct.anon = type { i64, i64, [16 x i64], i32 }
%struct.durationStats = type { i64, i64, i64 }
%struct.clientBufferLimitsConfig = type { i64, i64, i64 }
%struct.redisOpArray = type { ptr, i32, i32 }
%struct.aclInfo = type { i64, i64, i64, i64 }
%struct.redisTLSContextConfig = type { ptr, ptr, ptr, ptr, ptr, ptr, ptr, ptr, ptr, ptr, ptr, ptr, i32, i32, i32, i32 }
%union.pthread_mutex_t = type { %struct.__pthread_mutex_s }
%struct.__pthread_mutex_s = type { i32, i32, i32, i32, i32, i16, i16, %struct.__pthread_internal_list }
%struct.__pthread_internal_list = type { ptr, ptr }
%struct.__va_list_tag = type { i32, i32, ptr, ptr }
%struct.sigaction = type { %union.anon, %struct.__sigset_t, i32, ptr }
%union.anon = type { ptr }
%struct.__sigset_t = type { [16 x i64] }

@server = external global %struct.redisServer, align 8
@.str.245 = private unnamed_addr constant [49 x i8] c"------------------------------------------------\00", align 1
@.str.246 = private unnamed_addr constant [58 x i8] c"!!! Software Failure. Press left mouse button to continue\00", align 1
@.str.247 = private unnamed_addr constant [27 x i8] c"Guru Meditation: %s #%s:%d\00", align 1
@bug_report_start_mutex = internal global %union.pthread_mutex_t zeroinitializer, align 8
@bug_report_start = internal global i32 0, align 4
@.str.248 = private unnamed_addr constant [66 x i8] c"\0A\0A=== REDIS BUG REPORT START: Cut & paste starting from here ===\0A\00", align 1
@stdout = external global ptr, align 8

; Function Attrs: nounwind uwtable
define dso_local void @bugReportEnd(i32 noundef %killViaSignal, i32 noundef %sig) #0 {
entry:
  %killViaSignal.addr = alloca i32, align 4
  %sig.addr = alloca i32, align 4
  %act = alloca %struct.sigaction, align 8
  store i32 %killViaSignal, ptr %killViaSignal.addr, align 4
  store i32 %sig, ptr %sig.addr, align 4
  call void @serverLogRawFromHandler(i32 noundef 1027, ptr noundef @.str.289)
  %0 = load i32, ptr getelementptr inbounds (%struct.redisServer, ptr @server, i32 0, i32 176), align 4
  %tobool = icmp ne i32 %0, 0
  br i1 %tobool, label %land.lhs.true, label %if.end

land.lhs.true:                                    ; preds = %entry
  %1 = load i32, ptr getelementptr inbounds (%struct.redisServer, ptr @server, i32 0, i32 174), align 4
  %cmp = icmp eq i32 %1, 0
  br i1 %cmp, label %land.lhs.true1, label %if.end

land.lhs.true1:                                   ; preds = %land.lhs.true
  %2 = load ptr, ptr getelementptr inbounds (%struct.redisServer, ptr @server, i32 0, i32 23), align 8
  %tobool2 = icmp ne ptr %2, null
  br i1 %tobool2, label %if.then, label %if.end

if.then:                                          ; preds = %land.lhs.true1
  %3 = load ptr, ptr getelementptr inbounds (%struct.redisServer, ptr @server, i32 0, i32 23), align 8
  %call = call i32 @unlink(ptr noundef %3) #14
  br label %if.end

if.end:                                           ; preds = %if.then, %land.lhs.true1, %land.lhs.true, %entry
  %4 = load i32, ptr %killViaSignal.addr, align 4
  %tobool3 = icmp ne i32 %4, 0
  br i1 %tobool3, label %if.end9, label %if.then4

if.then4:                                         ; preds = %if.end
  %5 = load i32, ptr getelementptr inbounds (%struct.redisServer, ptr @server, i32 0, i32 256), align 4
  %tobool5 = icmp ne i32 %5, 0
  br i1 %tobool5, label %if.then6, label %if.end8

if.then6:                                         ; preds = %if.then4
  %6 = load ptr, ptr @stdout, align 8
  %call7 = call i32 @fflush(ptr noundef %6)
  call void @_exit(i32 noundef 1) #16
  unreachable

if.end8:                                          ; preds = %if.then4
  call void @abort() #12
  unreachable

if.end9:                                          ; preds = %if.end
  %sa_mask = getelementptr inbounds %struct.sigaction, ptr %act, i32 0, i32 1
  %call10 = call i32 @sigemptyset(ptr noundef %sa_mask) #14
  %sa_flags = getelementptr inbounds %struct.sigaction, ptr %act, i32 0, i32 2
  store i32 0, ptr %sa_flags, align 8
  %__sigaction_handler = getelementptr inbounds %struct.sigaction, ptr %act, i32 0, i32 0
  store ptr null, ptr %__sigaction_handler, align 8
  %7 = load i32, ptr %sig.addr, align 4
  %call11 = call i32 @sigaction(i32 noundef %7, ptr noundef %act, ptr noundef null) #14
  %call12 = call i32 @getpid() #14
  %8 = load i32, ptr %sig.addr, align 4
  %call13 = call i32 @kill(i32 noundef %call12, i32 noundef %8) #14
  ret void
}

; Function Attrs: nounwind uwtable
define dso_local void @removeSigSegvHandlers() #0 {
entry:
  %act = alloca %struct.sigaction, align 8
  %sa_mask = getelementptr inbounds %struct.sigaction, ptr %act, i32 0, i32 1
  %call = call i32 @sigemptyset(ptr noundef %sa_mask) #14
  %sa_flags = getelementptr inbounds %struct.sigaction, ptr %act, i32 0, i32 2
  store i32 -1073741824, ptr %sa_flags, align 8
  %__sigaction_handler = getelementptr inbounds %struct.sigaction, ptr %act, i32 0, i32 0
  store ptr null, ptr %__sigaction_handler, align 8
  %call1 = call i32 @sigaction(i32 noundef 11, ptr noundef %act, ptr noundef null) #14
  %call2 = call i32 @sigaction(i32 noundef 7, ptr noundef %act, ptr noundef null) #14
  %call3 = call i32 @sigaction(i32 noundef 8, ptr noundef %act, ptr noundef null) #14
  %call4 = call i32 @sigaction(i32 noundef 4, ptr noundef %act, ptr noundef null) #14
  %call5 = call i32 @sigaction(i32 noundef 6, ptr noundef %act, ptr noundef null) #14
  ret void
}

; Function Attrs: nounwind uwtable
define dso_local void @bugReportStart() #0 {
entry:
  %call = call i32 @pthread_mutex_lock(ptr noundef @bug_report_start_mutex) #14
  %0 = load i32, ptr @bug_report_start, align 4
  %cmp = icmp eq i32 %0, 0
  br i1 %cmp, label %if.then, label %if.end

if.then:                                          ; preds = %entry
  call void @serverLogRaw(i32 noundef 1027, ptr noundef @.str.248)
  store i32 1, ptr @bug_report_start, align 4
  br label %if.end

if.end:                                           ; preds = %if.then, %entry
  %call1 = call i32 @pthread_mutex_unlock(ptr noundef @bug_report_start_mutex) #14
  ret void
}

; Function Attrs: nounwind uwtable
define dso_local void @_serverPanic(ptr noundef %file, i32 noundef %line, ptr noundef %msg, ...) #0 {
entry:
  %file.addr = alloca ptr, align 8
  %line.addr = alloca i32, align 4
  %msg.addr = alloca ptr, align 8
  %ap = alloca [1 x %struct.__va_list_tag], align 16
  %fmtmsg = alloca [256 x i8], align 16
  store ptr %file, ptr %file.addr, align 8
  store i32 %line, ptr %line.addr, align 4
  store ptr %msg, ptr %msg.addr, align 8
  %arraydecay = getelementptr inbounds [1 x %struct.__va_list_tag], ptr %ap, i64 0, i64 0
  call void @llvm.va_start.p0(ptr %arraydecay)
  %arraydecay1 = getelementptr inbounds [256 x i8], ptr %fmtmsg, i64 0, i64 0
  %0 = load ptr, ptr %msg.addr, align 8
  %arraydecay2 = getelementptr inbounds [1 x %struct.__va_list_tag], ptr %ap, i64 0, i64 0
  %call = call i32 @vsnprintf(ptr noundef %arraydecay1, i64 noundef 256, ptr noundef %0, ptr noundef %arraydecay2) #14
  %arraydecay3 = getelementptr inbounds [1 x %struct.__va_list_tag], ptr %ap, i64 0, i64 0
  call void @llvm.va_end.p0(ptr %arraydecay3)
  call void @bugReportStart()
  br label %do.body

do.body:                                          ; preds = %entry
  %1 = load i32, ptr getelementptr inbounds (%struct.redisServer, ptr @server, i32 0, i32 156), align 8
  %cmp = icmp slt i32 3, %1
  br i1 %cmp, label %if.then, label %if.end

if.then:                                          ; preds = %do.body
  br label %do.end

if.end:                                           ; preds = %do.body
  call void (i32, ptr, ...) @_serverLog(i32 noundef 3, ptr noundef @.str.245)
  br label %do.end

do.end:                                           ; preds = %if.end, %if.then
  br label %do.body4

do.body4:                                         ; preds = %do.end
  %2 = load i32, ptr getelementptr inbounds (%struct.redisServer, ptr @server, i32 0, i32 156), align 8
  %cmp5 = icmp slt i32 3, %2
  br i1 %cmp5, label %if.then6, label %if.end7

if.then6:                                         ; preds = %do.body4
  br label %do.end8

if.end7:                                          ; preds = %do.body4
  call void (i32, ptr, ...) @_serverLog(i32 noundef 3, ptr noundef @.str.246)
  br label %do.end8

do.end8:                                          ; preds = %if.end7, %if.then6
  br label %do.body9

do.body9:                                         ; preds = %do.end8
  %3 = load i32, ptr getelementptr inbounds (%struct.redisServer, ptr @server, i32 0, i32 156), align 8
  %cmp10 = icmp slt i32 3, %3
  br i1 %cmp10, label %if.then11, label %if.end12

if.then11:                                        ; preds = %do.body9
  br label %do.end14

if.end12:                                         ; preds = %do.body9
  %arraydecay13 = getelementptr inbounds [256 x i8], ptr %fmtmsg, i64 0, i64 0
  %4 = load ptr, ptr %file.addr, align 8
  %5 = load i32, ptr %line.addr, align 4
  call void (i32, ptr, ...) @_serverLog(i32 noundef 3, ptr noundef @.str.247, ptr noundef %arraydecay13, ptr noundef %4, i32 noundef %5)
  br label %do.end14

do.end14:                                         ; preds = %if.end12, %if.then11
  %6 = load i32, ptr getelementptr inbounds (%struct.redisServer, ptr @server, i32 0, i32 254), align 4
  %tobool = icmp ne i32 %6, 0
  br i1 %tobool, label %if.then15, label %if.end16

if.then15:                                        ; preds = %do.end14
  call void @logStackTrace(ptr noundef null, i32 noundef 1)
  call void @printCrashReport()
  br label %if.end16

if.end16:                                         ; preds = %if.then15, %do.end14
  call void @removeSigSegvHandlers()
  call void @bugReportEnd(i32 noundef 0, i32 noundef 0)
  ret void
}