; Function Attrs: noreturn nounwind uwtable
define dso_local void @_serverPanic(ptr noundef %file, i32 noundef %line, ptr nocapture noundef readonly %msg, ...) local_unnamed_addr #4 {
entry:
  %act.i = alloca %struct.sigaction, align 8
  %ap = alloca [1 x %struct.__va_list_tag], align 16
  %fmtmsg = alloca [256 x i8], align 16
  call void @llvm.va_start.p0(ptr nonnull %ap)
  %call = call i32 @vsnprintf(ptr noundef nonnull %fmtmsg, i64 noundef 256, ptr noundef %msg, ptr noundef nonnull %ap) #22
  call void @llvm.va_end.p0(ptr nonnull %ap)
  %call.i = call i32 @pthread_mutex_lock(ptr noundef nonnull @bug_report_start_mutex) #22
  %.b.i = load i1, ptr @bug_report_start, align 4
  br i1 %.b.i, label %bugReportStart.exit, label %if.then.i

if.then.i:                                        ; preds = %entry
  call void @serverLogRaw(i32 noundef 1027, ptr noundef nonnull @.str.248) #22
  store i1 true, ptr @bug_report_start, align 4
  br label %bugReportStart.exit

bugReportStart.exit:                              ; preds = %entry, %if.then.i
  %call1.i = call i32 @pthread_mutex_unlock(ptr noundef nonnull @bug_report_start_mutex) #22
  %0 = load i32, ptr getelementptr inbounds (%struct.redisServer, ptr @server, i64 0, i32 156), align 8
  %cmp = icmp sgt i32 %0, 3
  br i1 %cmp, label %do.end14, label %do.body4

do.body4:                                         ; preds = %bugReportStart.exit
  call void (i32, ptr, ...) @_serverLog(i32 noundef 3, ptr noundef nonnull @.str.245) #22
  %.pr = load i32, ptr getelementptr inbounds (%struct.redisServer, ptr @server, i64 0, i32 156), align 8
  %cmp5 = icmp sgt i32 %.pr, 3
  br i1 %cmp5, label %do.end14, label %do.body9

do.body9:                                         ; preds = %do.body4
  call void (i32, ptr, ...) @_serverLog(i32 noundef 3, ptr noundef nonnull @.str.246) #22
  %.pr7 = load i32, ptr getelementptr inbounds (%struct.redisServer, ptr @server, i64 0, i32 156), align 8
  %cmp10 = icmp sgt i32 %.pr7, 3
  br i1 %cmp10, label %do.end14, label %if.end12

if.end12:                                         ; preds = %do.body9
  call void (i32, ptr, ...) @_serverLog(i32 noundef 3, ptr noundef nonnull @.str.247, ptr noundef nonnull %fmtmsg, ptr noundef %file, i32 noundef %line) #22
  br label %do.end14

do.end14:                                         ; preds = %bugReportStart.exit, %do.body4, %do.body9, %if.end12
  %1 = load i32, ptr getelementptr inbounds (%struct.redisServer, ptr @server, i64 0, i32 254), align 4
  %tobool.not = icmp eq i32 %1, 0
  br i1 %tobool.not, label %if.end16, label %if.then15

if.then15:                                        ; preds = %do.end14
  call void @logStackTrace(ptr noundef null, i32 noundef 1)
  call void @printCrashReport()
  br label %if.end16

if.end16:                                         ; preds = %if.then15, %do.end14
  call void @llvm.lifetime.start.p0(i64 152, ptr nonnull %act.i)
  %sa_mask.i = getelementptr inbounds i8, ptr %act.i, i64 8
  %call.i1 = call i32 @sigemptyset(ptr noundef nonnull %sa_mask.i) #22
  %sa_flags.i = getelementptr inbounds i8, ptr %act.i, i64 136
  store i32 -1073741824, ptr %sa_flags.i, align 8
  store ptr null, ptr %act.i, align 8
  %call1.i2 = call i32 @sigaction(i32 noundef 11, ptr noundef nonnull %act.i, ptr noundef null) #22
  %call2.i = call i32 @sigaction(i32 noundef 7, ptr noundef nonnull %act.i, ptr noundef null) #22
  %call3.i = call i32 @sigaction(i32 noundef 8, ptr noundef nonnull %act.i, ptr noundef null) #22
  %call4.i = call i32 @sigaction(i32 noundef 4, ptr noundef nonnull %act.i, ptr noundef null) #22
  %call5.i = call i32 @sigaction(i32 noundef 6, ptr noundef nonnull %act.i, ptr noundef null) #22
  call void @llvm.lifetime.end.p0(i64 152, ptr nonnull %act.i)
  call void @serverLogRawFromHandler(i32 noundef 1027, ptr noundef nonnull @.str.289) #22
  %2 = load i32, ptr getelementptr inbounds (%struct.redisServer, ptr @server, i64 0, i32 176), align 4
  %tobool.i = icmp ne i32 %2, 0
  %3 = load i32, ptr getelementptr inbounds (%struct.redisServer, ptr @server, i64 0, i32 174), align 4
  %cmp.i = icmp eq i32 %3, 0
  %or.cond.i = select i1 %tobool.i, i1 %cmp.i, i1 false
  %4 = load ptr, ptr getelementptr inbounds (%struct.redisServer, ptr @server, i64 0, i32 23), align 8
  %tobool2.i = icmp ne ptr %4, null
  %or.cond1.i = select i1 %or.cond.i, i1 %tobool2.i, i1 false
  br i1 %or.cond1.i, label %if.then.i4, label %if.end.i

if.then.i4:                                       ; preds = %if.end16
  %call.i5 = call i32 @unlink(ptr noundef nonnull %4) #22
  br label %if.end.i

if.end.i:                                         ; preds = %if.then.i4, %if.end16
  %5 = load i32, ptr getelementptr inbounds (%struct.redisServer, ptr @server, i64 0, i32 256), align 4
  %tobool5.not.i = icmp eq i32 %5, 0
  br i1 %tobool5.not.i, label %if.end8.i, label %if.then6.i

if.then6.i:                                       ; preds = %if.end.i
  %6 = load ptr, ptr @stdout, align 8
  %call7.i = call i32 @fflush(ptr noundef %6)
  call void @_exit(i32 noundef 1) #25
  unreachable

if.end8.i:                                        ; preds = %if.end.i
  call void @abort() #25
  unreachable
}